target datalayout = "e-m:e-p270:32:32-p271:32:32-p272:64:64-i64:64-i128:128-f80:128-n8:16:32:64-S128"
target triple = "x86_64-pc-linux-gnu"

%struct.yyjson_alc = type { ptr, ptr, ptr, ptr }

@__const.yyjson_alc_dyn_new.def = private unnamed_addr constant %struct.yyjson_alc { ptr @default_malloc, ptr @default_realloc, ptr @default_free, ptr null }, align 8

; Function Attrs: nounwind uwtable
define dso_local ptr @yyjson_alc_dyn_new() #0 {
  %1 = alloca ptr, align 8
  %2 = alloca %struct.yyjson_alc, align 8
  %3 = alloca i64, align 8
  %4 = alloca ptr, align 8
  %5 = alloca ptr, align 8
  %6 = alloca i32, align 4
  call void @llvm.lifetime.start.p0(i64 32, ptr %2) #13
  call void @llvm.memcpy.p0.p0.i64(ptr align 8 %2, ptr align 8 @__const.yyjson_alc_dyn_new.def, i64 32, i1 false)
  call void @llvm.lifetime.start.p0(i64 8, ptr %3) #13
  store i64 64, ptr %3, align 8, !tbaa !10
  call void @llvm.lifetime.start.p0(i64 8, ptr %4) #13
  %7 = getelementptr inbounds nuw %struct.yyjson_alc, ptr %2, i32 0, i32 0
  %8 = load ptr, ptr %7, align 8, !tbaa !23
  %9 = getelementptr inbounds nuw %struct.yyjson_alc, ptr %2, i32 0, i32 3
  %10 = load ptr, ptr %9, align 8, !tbaa !27
  %11 = load i64, ptr %3, align 8, !tbaa !10
  %12 = call ptr %8(ptr noundef %10, i64 noundef %11)
  store ptr %12, ptr %4, align 8, !tbaa !4
  call void @llvm.lifetime.start.p0(i64 8, ptr %5) #13
  %13 = load ptr, ptr %4, align 8, !tbaa !4
  %14 = getelementptr inbounds %struct.yyjson_alc, ptr %13, i64 1
  store ptr %14, ptr %5, align 8, !tbaa !9
  %15 = load ptr, ptr %4, align 8, !tbaa !4
  %16 = icmp ne ptr %15, null
  %17 = xor i1 %16, true
  %18 = xor i1 %17, true
  %19 = xor i1 %18, true
  %20 = zext i1 %19 to i32
  %21 = sext i32 %20 to i64
  %22 = call i64 @llvm.expect.i64(i64 %21, i64 0)
  %23 = icmp ne i64 %22, 0
  br i1 %23, label %24, label %25

24:                                               ; preds = %0
  store ptr null, ptr %1, align 8
  store i32 1, ptr %6, align 4
  br label %38

25:                                               ; preds = %0
  %26 = load ptr, ptr %4, align 8, !tbaa !4
  %27 = getelementptr inbounds nuw %struct.yyjson_alc, ptr %26, i32 0, i32 0
  store ptr @dyn_malloc, ptr %27, align 8, !tbaa !23
  %28 = load ptr, ptr %4, align 8, !tbaa !4
  %29 = getelementptr inbounds nuw %struct.yyjson_alc, ptr %28, i32 0, i32 1
  store ptr @dyn_realloc, ptr %29, align 8, !tbaa !25
  %30 = load ptr, ptr %4, align 8, !tbaa !4
  %31 = getelementptr inbounds nuw %struct.yyjson_alc, ptr %30, i32 0, i32 2
  store ptr @dyn_free, ptr %31, align 8, !tbaa !26
  %32 = load ptr, ptr %4, align 8, !tbaa !4
  %33 = getelementptr inbounds %struct.yyjson_alc, ptr %32, i64 1
  %34 = load ptr, ptr %4, align 8, !tbaa !4
  %35 = getelementptr inbounds nuw %struct.yyjson_alc, ptr %34, i32 0, i32 3
  store ptr %33, ptr %35, align 8, !tbaa !27
  %36 = load ptr, ptr %5, align 8, !tbaa !9
  call void @llvm.memset.p0.i64(ptr align 8 %36, i8 0, i64 32, i1 false)
  %37 = load ptr, ptr %4, align 8, !tbaa !4
  store ptr %37, ptr %1, align 8
  store i32 1, ptr %6, align 4
  br label %38

38:                                               ; preds = %25, %24
  call void @llvm.lifetime.end.p0(i64 8, ptr %5) #13
  call void @llvm.lifetime.end.p0(i64 8, ptr %4) #13
  call void @llvm.lifetime.end.p0(i64 8, ptr %3) #13
  call void @llvm.lifetime.end.p0(i64 32, ptr %2) #13
  %39 = load ptr, ptr %1, align 8
  ret ptr %39
}