; Function Attrs: mustprogress nofree nounwind willreturn memory(write, argmem: none, inaccessiblemem: readwrite) uwtable
define dso_local noundef ptr @yyjson_alc_dyn_new() local_unnamed_addr #5 {
  %1 = tail call noalias noundef dereferenceable_or_null(64) ptr @malloc(i64 noundef 64) #29
  %.not = icmp eq ptr %1, null
  br i1 %.not, label %7, label %2, !prof !4

2:                                                ; preds = %0
  %3 = getelementptr inbounds nuw i8, ptr %1, i64 32
  store ptr @dyn_malloc, ptr %1, align 8, !tbaa !18
  %4 = getelementptr inbounds nuw i8, ptr %1, i64 8
  store ptr @dyn_realloc, ptr %4, align 8, !tbaa !20
  %5 = getelementptr inbounds nuw i8, ptr %1, i64 16
  store ptr @dyn_free, ptr %5, align 8, !tbaa !21
  %6 = getelementptr inbounds nuw i8, ptr %1, i64 24
  store ptr %3, ptr %6, align 8, !tbaa !22
  tail call void @llvm.memset.p0.i64(ptr noundef nonnull align 8 dereferenceable(32) %3, i8 0, i64 32, i1 false)
  br label %7

7:                                                ; preds = %0, %2
  ret ptr %1
}